target datalayout = "e-m:e-p270:32:32-p271:32:32-p272:64:64-i64:64-i128:128-f80:128-n8:16:32:64-S128"
target triple = "x86_64-pc-linux-gnu"

%"class.std::vector" = type { %"struct.std::_Vector_base" }
%"struct.std::_Vector_base" = type { %"struct.std::_Vector_base<pxrInternal_v0_24__pxrReserved__::TfPatternMatcher, std::allocator<pxrInternal_v0_24__pxrReserved__::TfPatternMatcher>>::_Vector_impl" }
%"struct.std::_Vector_base<pxrInternal_v0_24__pxrReserved__::TfPatternMatcher, std::allocator<pxrInternal_v0_24__pxrReserved__::TfPatternMatcher>>::_Vector_impl" = type { %"struct.std::_Vector_base<pxrInternal_v0_24__pxrReserved__::TfPatternMatcher, std::allocator<pxrInternal_v0_24__pxrReserved__::TfPatternMatcher>>::_Vector_impl_data" }
%"struct.std::_Vector_base<pxrInternal_v0_24__pxrReserved__::TfPatternMatcher, std::allocator<pxrInternal_v0_24__pxrReserved__::TfPatternMatcher>>::_Vector_impl_data" = type { ptr, ptr, ptr }
%"struct.std::_Vector_base.1" = type { %"struct.std::_Vector_base<std::__cxx11::basic_string<char>, std::allocator<std::__cxx11::basic_string<char>>>::_Vector_impl" }
%"struct.std::_Vector_base<std::__cxx11::basic_string<char>, std::allocator<std::__cxx11::basic_string<char>>>::_Vector_impl" = type { %"struct.std::_Vector_base<std::__cxx11::basic_string<char>, std::allocator<std::__cxx11::basic_string<char>>>::_Vector_impl_data" }
%"struct.std::_Vector_base<std::__cxx11::basic_string<char>, std::allocator<std::__cxx11::basic_string<char>>>::_Vector_impl_data" = type { ptr, ptr, ptr }
%"class.pxrInternal_v0_24__pxrReserved__::UsdUtilsConditionalAbortDiagnosticDelegateErrorFilters" = type { %"class.std::vector.0", %"class.std::vector.0" }
%"class.std::vector.0" = type { %"struct.std::_Vector_base.1" }
%"class.pxrInternal_v0_24__pxrReserved__::UsdUtilsConditionalAbortDiagnosticDelegate" = type { %"class.pxrInternal_v0_24__pxrReserved__::TfDiagnosticMgr::Delegate", %"class.std::vector", %"class.std::vector", %"class.std::vector", %"class.std::vector" }
%"class.pxrInternal_v0_24__pxrReserved__::TfDiagnosticMgr::Delegate" = type { ptr }

; Function Attrs: mustprogress uwtable
define linkonce_odr noundef nonnull align 8 dereferenceable(481) ptr @_ZN32pxrInternal_v0_24__pxrReserved__15TfDiagnosticMgr11GetInstanceEv() #0 comdat align 2 {
  %1 = call noundef nonnull align 8 dereferenceable(481) ptr @_ZN32pxrInternal_v0_24__pxrReserved__11TfSingletonINS_15TfDiagnosticMgrEE11GetInstanceEv()
  ret ptr %1
}

; Function Attrs: mustprogress nounwind uwtable
define linkonce_odr noundef nonnull align 8 dereferenceable(24) ptr @_ZNK32pxrInternal_v0_24__pxrReserved__54UsdUtilsConditionalAbortDiagnosticDelegateErrorFilters18GetCodePathFiltersB5cxx11Ev(ptr noundef nonnull align 8 dereferenceable(48) %0) #1 comdat align 2 {
  %2 = alloca ptr, align 8
  store ptr %0, ptr %2, align 8
  %3 = load ptr, ptr %2, align 8
  %4 = getelementptr inbounds nuw %"class.pxrInternal_v0_24__pxrReserved__::UsdUtilsConditionalAbortDiagnosticDelegateErrorFilters", ptr %3, i32 0, i32 1
  ret ptr %4
}

; Function Attrs: mustprogress nounwind uwtable
define linkonce_odr noundef nonnull align 8 dereferenceable(24) ptr @_ZNK32pxrInternal_v0_24__pxrReserved__54UsdUtilsConditionalAbortDiagnosticDelegateErrorFilters16GetStringFiltersB5cxx11Ev(ptr noundef nonnull align 8 dereferenceable(48) %0) #1 comdat align 2 {
  %2 = alloca ptr, align 8
  store ptr %0, ptr %2, align 8
  %3 = load ptr, ptr %2, align 8
  %4 = getelementptr inbounds nuw %"class.pxrInternal_v0_24__pxrReserved__::UsdUtilsConditionalAbortDiagnosticDelegateErrorFilters", ptr %3, i32 0, i32 0
  ret ptr %4
}

; Function Attrs: mustprogress nounwind uwtable
define linkonce_odr void @_ZN32pxrInternal_v0_24__pxrReserved__15TfDiagnosticMgr8DelegateC2Ev(ptr noundef nonnull align 8 dereferenceable(8) %0) unnamed_addr #1 comdat align 2 {
  %2 = alloca ptr, align 8
  store ptr %0, ptr %2, align 8
  %3 = load ptr, ptr %2, align 8
  store ptr getelementptr inbounds inrange(-16, 48) ({ [8 x ptr] }, ptr @_ZTVN32pxrInternal_v0_24__pxrReserved__15TfDiagnosticMgr8DelegateE, i32 0, i32 0, i32 2), ptr %3, align 8
  ret void
}

; Function Attrs: mustprogress uwtable
define void @_ZN32pxrInternal_v0_24__pxrReserved__42UsdUtilsConditionalAbortDiagnosticDelegateC2ERKNS_54UsdUtilsConditionalAbortDiagnosticDelegateErrorFiltersES3_(ptr noundef nonnull align 8 dereferenceable(104) %0, ptr noundef nonnull align 8 dereferenceable(48) %1, ptr noundef nonnull align 8 dereferenceable(48) %2) unnamed_addr #0 align 2 personality ptr @__gxx_personality_v0 {
  %4 = alloca ptr, align 8
  %5 = alloca ptr, align 8
  %6 = alloca ptr, align 8
  %7 = alloca ptr, align 8
  %8 = alloca i32, align 4
  store ptr %0, ptr %4, align 8
  store ptr %1, ptr %5, align 8
  store ptr %2, ptr %6, align 8
  %9 = load ptr, ptr %4, align 8
  call void @_ZN32pxrInternal_v0_24__pxrReserved__15TfDiagnosticMgr8DelegateC2Ev(ptr noundef nonnull align 8 dereferenceable(8) %9) #10
  store ptr getelementptr inbounds inrange(-16, 56) ({ [9 x ptr] }, ptr @_ZTVN32pxrInternal_v0_24__pxrReserved__42UsdUtilsConditionalAbortDiagnosticDelegateE, i32 0, i32 0, i32 2), ptr %9, align 8
  %10 = getelementptr inbounds nuw %"class.pxrInternal_v0_24__pxrReserved__::UsdUtilsConditionalAbortDiagnosticDelegate", ptr %9, i32 0, i32 1
  %11 = load ptr, ptr %5, align 8
  %12 = invoke noundef nonnull align 8 dereferenceable(24) ptr @_ZNK32pxrInternal_v0_24__pxrReserved__54UsdUtilsConditionalAbortDiagnosticDelegateErrorFilters16GetStringFiltersB5cxx11Ev(ptr noundef nonnull align 8 dereferenceable(48) %11)
          to label %13 unwind label %33

13:                                               ; preds = %3
  invoke void @_ZN32pxrInternal_v0_24__pxrReserved__23constructPatternFiltersERKSt6vectorINSt7__cxx1112basic_stringIcSt11char_traitsIcESaIcEEESaIS6_EE(ptr dead_on_unwind writable sret(%"class.std::vector") align 8 %10, ptr noundef nonnull align 8 dereferenceable(24) %12)
          to label %14 unwind label %33

14:                                               ; preds = %13
  %15 = getelementptr inbounds nuw %"class.pxrInternal_v0_24__pxrReserved__::UsdUtilsConditionalAbortDiagnosticDelegate", ptr %9, i32 0, i32 2
  %16 = load ptr, ptr %5, align 8
  %17 = invoke noundef nonnull align 8 dereferenceable(24) ptr @_ZNK32pxrInternal_v0_24__pxrReserved__54UsdUtilsConditionalAbortDiagnosticDelegateErrorFilters18GetCodePathFiltersB5cxx11Ev(ptr noundef nonnull align 8 dereferenceable(48) %16)
          to label %18 unwind label %37

18:                                               ; preds = %14
  invoke void @_ZN32pxrInternal_v0_24__pxrReserved__23constructPatternFiltersERKSt6vectorINSt7__cxx1112basic_stringIcSt11char_traitsIcESaIcEEESaIS6_EE(ptr dead_on_unwind writable sret(%"class.std::vector") align 8 %15, ptr noundef nonnull align 8 dereferenceable(24) %17)
          to label %19 unwind label %37

19:                                               ; preds = %18
  %20 = getelementptr inbounds nuw %"class.pxrInternal_v0_24__pxrReserved__::UsdUtilsConditionalAbortDiagnosticDelegate", ptr %9, i32 0, i32 3
  %21 = load ptr, ptr %6, align 8
  %22 = invoke noundef nonnull align 8 dereferenceable(24) ptr @_ZNK32pxrInternal_v0_24__pxrReserved__54UsdUtilsConditionalAbortDiagnosticDelegateErrorFilters16GetStringFiltersB5cxx11Ev(ptr noundef nonnull align 8 dereferenceable(48) %21)
          to label %23 unwind label %41

23:                                               ; preds = %19
  invoke void @_ZN32pxrInternal_v0_24__pxrReserved__23constructPatternFiltersERKSt6vectorINSt7__cxx1112basic_stringIcSt11char_traitsIcESaIcEEESaIS6_EE(ptr dead_on_unwind writable sret(%"class.std::vector") align 8 %20, ptr noundef nonnull align 8 dereferenceable(24) %22)
          to label %24 unwind label %41

24:                                               ; preds = %23
  %25 = getelementptr inbounds nuw %"class.pxrInternal_v0_24__pxrReserved__::UsdUtilsConditionalAbortDiagnosticDelegate", ptr %9, i32 0, i32 4
  %26 = load ptr, ptr %6, align 8
  %27 = invoke noundef nonnull align 8 dereferenceable(24) ptr @_ZNK32pxrInternal_v0_24__pxrReserved__54UsdUtilsConditionalAbortDiagnosticDelegateErrorFilters18GetCodePathFiltersB5cxx11Ev(ptr noundef nonnull align 8 dereferenceable(48) %26)
          to label %28 unwind label %45

28:                                               ; preds = %24
  invoke void @_ZN32pxrInternal_v0_24__pxrReserved__23constructPatternFiltersERKSt6vectorINSt7__cxx1112basic_stringIcSt11char_traitsIcESaIcEEESaIS6_EE(ptr dead_on_unwind writable sret(%"class.std::vector") align 8 %25, ptr noundef nonnull align 8 dereferenceable(24) %27)
          to label %29 unwind label %45

29:                                               ; preds = %28
  %30 = invoke noundef nonnull align 8 dereferenceable(481) ptr @_ZN32pxrInternal_v0_24__pxrReserved__15TfDiagnosticMgr11GetInstanceEv()
          to label %31 unwind label %49

31:                                               ; preds = %29
  invoke void @_ZN32pxrInternal_v0_24__pxrReserved__15TfDiagnosticMgr11AddDelegateEPNS0_8DelegateE(ptr noundef nonnull align 8 dereferenceable(481) %30, ptr noundef %9)
          to label %32 unwind label %49

32:                                               ; preds = %31
  ret void

33:                                               ; preds = %13, %3
  %34 = landingpad { ptr, i32 }
          cleanup
  %35 = extractvalue { ptr, i32 } %34, 0
  store ptr %35, ptr %7, align 8
  %36 = extractvalue { ptr, i32 } %34, 1
  store i32 %36, ptr %8, align 4
  br label %56

37:                                               ; preds = %18, %14
  %38 = landingpad { ptr, i32 }
          cleanup
  %39 = extractvalue { ptr, i32 } %38, 0
  store ptr %39, ptr %7, align 8
  %40 = extractvalue { ptr, i32 } %38, 1
  store i32 %40, ptr %8, align 4
  br label %55

41:                                               ; preds = %23, %19
  %42 = landingpad { ptr, i32 }
          cleanup
  %43 = extractvalue { ptr, i32 } %42, 0
  store ptr %43, ptr %7, align 8
  %44 = extractvalue { ptr, i32 } %42, 1
  store i32 %44, ptr %8, align 4
  br label %54

45:                                               ; preds = %28, %24
  %46 = landingpad { ptr, i32 }
          cleanup
  %47 = extractvalue { ptr, i32 } %46, 0
  store ptr %47, ptr %7, align 8
  %48 = extractvalue { ptr, i32 } %46, 1
  store i32 %48, ptr %8, align 4
  br label %53

49:                                               ; preds = %31, %29
  %50 = landingpad { ptr, i32 }
          cleanup
  %51 = extractvalue { ptr, i32 } %50, 0
  store ptr %51, ptr %7, align 8
  %52 = extractvalue { ptr, i32 } %50, 1
  store i32 %52, ptr %8, align 4
  call void @_ZNSt6vectorIN32pxrInternal_v0_24__pxrReserved__16TfPatternMatcherESaIS1_EED2Ev(ptr noundef nonnull align 8 dereferenceable(24) %25) #10
  br label %53

53:                                               ; preds = %49, %45
  call void @_ZNSt6vectorIN32pxrInternal_v0_24__pxrReserved__16TfPatternMatcherESaIS1_EED2Ev(ptr noundef nonnull align 8 dereferenceable(24) %20) #10
  br label %54

54:                                               ; preds = %53, %41
  call void @_ZNSt6vectorIN32pxrInternal_v0_24__pxrReserved__16TfPatternMatcherESaIS1_EED2Ev(ptr noundef nonnull align 8 dereferenceable(24) %15) #10
  br label %55

55:                                               ; preds = %54, %37
  call void @_ZNSt6vectorIN32pxrInternal_v0_24__pxrReserved__16TfPatternMatcherESaIS1_EED2Ev(ptr noundef nonnull align 8 dereferenceable(24) %10) #10
  br label %56

56:                                               ; preds = %55, %33
  call void @_ZN32pxrInternal_v0_24__pxrReserved__15TfDiagnosticMgr8DelegateD2Ev(ptr noundef nonnull align 8 dereferenceable(8) %9) #10
  br label %57

57:                                               ; preds = %56
  %58 = load ptr, ptr %7, align 8
  %59 = load i32, ptr %8, align 4
  %60 = insertvalue { ptr, i32 } poison, ptr %58, 0
  %61 = insertvalue { ptr, i32 } %60, i32 %59, 1
  resume { ptr, i32 } %61
}