; Function Attrs: mustprogress uwtable
define void @_ZN32pxrInternal_v0_24__pxrReserved__42UsdUtilsConditionalAbortDiagnosticDelegateC2ERKNS_54UsdUtilsConditionalAbortDiagnosticDelegateErrorFiltersES3_(ptr noundef nonnull align 8 dereferenceable(104) initializes((0, 32)) %0, ptr noundef nonnull readonly align 8 captures(none) dereferenceable(48) %1, ptr noundef nonnull readonly align 8 captures(none) dereferenceable(48) %2) unnamed_addr #0 align 2 personality ptr @__gxx_personality_v0 {
  store ptr getelementptr inbounds nuw inrange(-16, 56) (i8, ptr @_ZTVN32pxrInternal_v0_24__pxrReserved__42UsdUtilsConditionalAbortDiagnosticDelegateE, i64 16), ptr %0, align 8
  %4 = getelementptr inbounds nuw i8, ptr %0, i64 8
  invoke void @_ZN32pxrInternal_v0_24__pxrReserved__23constructPatternFiltersERKSt6vectorINSt7__cxx1112basic_stringIcSt11char_traitsIcESaIcEEESaIS6_EE(ptr dead_on_unwind nonnull writable sret(%"class.std::vector") align 8 %4, ptr noundef nonnull align 8 dereferenceable(24) %1)
          to label %5 unwind label %16

5:                                                ; preds = %3
  %6 = getelementptr inbounds nuw i8, ptr %0, i64 32
  %7 = getelementptr inbounds nuw i8, ptr %1, i64 24
  invoke void @_ZN32pxrInternal_v0_24__pxrReserved__23constructPatternFiltersERKSt6vectorINSt7__cxx1112basic_stringIcSt11char_traitsIcESaIcEEESaIS6_EE(ptr dead_on_unwind nonnull writable sret(%"class.std::vector") align 8 %6, ptr noundef nonnull align 8 dereferenceable(24) %7)
          to label %8 unwind label %18

8:                                                ; preds = %5
  %9 = getelementptr inbounds nuw i8, ptr %0, i64 56
  invoke void @_ZN32pxrInternal_v0_24__pxrReserved__23constructPatternFiltersERKSt6vectorINSt7__cxx1112basic_stringIcSt11char_traitsIcESaIcEEESaIS6_EE(ptr dead_on_unwind nonnull writable sret(%"class.std::vector") align 8 %9, ptr noundef nonnull align 8 dereferenceable(24) %2)
          to label %10 unwind label %20

10:                                               ; preds = %8
  %11 = getelementptr inbounds nuw i8, ptr %0, i64 80
  %12 = getelementptr inbounds nuw i8, ptr %2, i64 24
  invoke void @_ZN32pxrInternal_v0_24__pxrReserved__23constructPatternFiltersERKSt6vectorINSt7__cxx1112basic_stringIcSt11char_traitsIcESaIcEEESaIS6_EE(ptr dead_on_unwind nonnull writable sret(%"class.std::vector") align 8 %11, ptr noundef nonnull align 8 dereferenceable(24) %12)
          to label %13 unwind label %22

13:                                               ; preds = %10
  %14 = invoke noundef nonnull align 8 dereferenceable(481) ptr @_ZN32pxrInternal_v0_24__pxrReserved__11TfSingletonINS_15TfDiagnosticMgrEE11GetInstanceEv()
          to label %_ZN32pxrInternal_v0_24__pxrReserved__15TfDiagnosticMgr11GetInstanceEv.exit unwind label %24

_ZN32pxrInternal_v0_24__pxrReserved__15TfDiagnosticMgr11GetInstanceEv.exit: ; preds = %13
  invoke void @_ZN32pxrInternal_v0_24__pxrReserved__15TfDiagnosticMgr11AddDelegateEPNS0_8DelegateE(ptr noundef nonnull align 8 dereferenceable(481) %14, ptr noundef nonnull %0)
          to label %15 unwind label %24

15:                                               ; preds = %_ZN32pxrInternal_v0_24__pxrReserved__15TfDiagnosticMgr11GetInstanceEv.exit
  ret void

16:                                               ; preds = %3
  %17 = landingpad { ptr, i32 }
          cleanup
  br label %29

18:                                               ; preds = %5
  %19 = landingpad { ptr, i32 }
          cleanup
  br label %28

20:                                               ; preds = %8
  %21 = landingpad { ptr, i32 }
          cleanup
  br label %27

22:                                               ; preds = %10
  %23 = landingpad { ptr, i32 }
          cleanup
  br label %26

24:                                               ; preds = %13, %_ZN32pxrInternal_v0_24__pxrReserved__15TfDiagnosticMgr11GetInstanceEv.exit
  %25 = landingpad { ptr, i32 }
          cleanup
  tail call void @_ZNSt6vectorIN32pxrInternal_v0_24__pxrReserved__16TfPatternMatcherESaIS1_EED2Ev(ptr noundef nonnull align 8 dereferenceable(24) %11) #19
  br label %26

26:                                               ; preds = %24, %22
  %.pn = phi { ptr, i32 } [ %25, %24 ], [ %23, %22 ]
  tail call void @_ZNSt6vectorIN32pxrInternal_v0_24__pxrReserved__16TfPatternMatcherESaIS1_EED2Ev(ptr noundef nonnull align 8 dereferenceable(24) %9) #19
  br label %27

27:                                               ; preds = %26, %20
  %.pn.pn = phi { ptr, i32 } [ %.pn, %26 ], [ %21, %20 ]
  tail call void @_ZNSt6vectorIN32pxrInternal_v0_24__pxrReserved__16TfPatternMatcherESaIS1_EED2Ev(ptr noundef nonnull align 8 dereferenceable(24) %6) #19
  br label %28

28:                                               ; preds = %27, %18
  %.pn.pn.pn = phi { ptr, i32 } [ %.pn.pn, %27 ], [ %19, %18 ]
  tail call void @_ZNSt6vectorIN32pxrInternal_v0_24__pxrReserved__16TfPatternMatcherESaIS1_EED2Ev(ptr noundef nonnull align 8 dereferenceable(24) %4) #19
  br label %29

29:                                               ; preds = %28, %16
  %.pn.pn.pn.pn = phi { ptr, i32 } [ %.pn.pn.pn, %28 ], [ %17, %16 ]
  tail call void @_ZN32pxrInternal_v0_24__pxrReserved__15TfDiagnosticMgr8DelegateD2Ev(ptr noundef nonnull align 8 dereferenceable(8) %0) #19
  resume { ptr, i32 } %.pn.pn.pn.pn
}